target datalayout = "e-m:e-p270:32:32-p271:32:32-p272:64:64-i64:64-i128:128-f80:128-n8:16:32:64-S128"
target triple = "x86_64-pc-linux-gnu"

@libctx = internal global ptr null, align 8
@.str.14 = private unnamed_addr constant [30 x i8] c"../openssl/test/quicapitest.c\00", align 1
@.str.62 = private unnamed_addr constant [5 x i8] c"cctx\00", align 1
@.str.67 = private unnamed_addr constant [49 x i8] c"qtest_create_quic_connection(qtserv, clientquic)\00", align 1
@.str.82 = private unnamed_addr constant [2 x i8] c"1\00", align 1
@.str.89 = private unnamed_addr constant [31 x i8] c"SSL_session_reused(clientquic)\00", align 1
@.str.229 = private unnamed_addr constant [95 x i8] c"qtest_create_quic_objects(libctx, cctx, NULL, NULL, NULL, 0, &qtserv, &clientquic, NULL, NULL)\00", align 1
@use_session_cb_cnt = internal global i32 0, align 4
@find_session_cb_cnt = internal global i32 0, align 4
@serverpsk = internal global ptr null, align 8
@clientpsk = internal global ptr null, align 8
@.str.230 = private unnamed_addr constant [10 x i8] c"clientpsk\00", align 1
@.str.231 = private unnamed_addr constant [20 x i8] c"find_session_cb_cnt\00", align 1
@.str.232 = private unnamed_addr constant [19 x i8] c"use_session_cb_cnt\00", align 1

; Function Attrs: nounwind uwtable
define internal i32 @test_quic_psk() #0 {
  %1 = alloca ptr, align 8
  %2 = alloca ptr, align 8
  %3 = alloca ptr, align 8
  %4 = alloca i32, align 4
  call void @llvm.lifetime.start.p0(i64 8, ptr %1) #8
  %5 = load ptr, ptr @libctx, align 8, !tbaa !4
  %6 = call ptr @OSSL_QUIC_client_method()
  %7 = call ptr @SSL_CTX_new_ex(ptr noundef %5, ptr noundef null, ptr noundef %6)
  store ptr %7, ptr %1, align 8, !tbaa !15
  call void @llvm.lifetime.start.p0(i64 8, ptr %2) #8
  store ptr null, ptr %2, align 8, !tbaa !17
  call void @llvm.lifetime.start.p0(i64 8, ptr %3) #8
  store ptr null, ptr %3, align 8, !tbaa !19
  call void @llvm.lifetime.start.p0(i64 4, ptr %4) #8
  store i32 0, ptr %4, align 4, !tbaa !13
  %8 = load ptr, ptr %1, align 8, !tbaa !15
  %9 = call i32 @test_ptr(ptr noundef @.str.14, i32 noundef 1331, ptr noundef @.str.62, ptr noundef %8)
  %10 = icmp ne i32 %9, 0
  br i1 %10, label %11, label %19

11:                                               ; preds = %0
  %12 = load ptr, ptr @libctx, align 8, !tbaa !4
  %13 = load ptr, ptr %1, align 8, !tbaa !15
  %14 = call i32 @qtest_create_quic_objects(ptr noundef %12, ptr noundef %13, ptr noundef null, ptr noundef null, ptr noundef null, i32 noundef 0, ptr noundef %3, ptr noundef %2, ptr noundef null, ptr noundef null)
  %15 = icmp ne i32 %14, 0
  %16 = zext i1 %15 to i32
  %17 = call i32 @test_true(ptr noundef @.str.14, i32 noundef 1335, ptr noundef @.str.229, i32 noundef %16)
  %18 = icmp ne i32 %17, 0
  br i1 %18, label %20, label %19

19:                                               ; preds = %11, %0
  br label %56

20:                                               ; preds = %11
  %21 = load ptr, ptr %2, align 8, !tbaa !17
  call void @SSL_set_psk_use_session_callback(ptr noundef %21, ptr noundef @use_session_cb)
  %22 = load ptr, ptr %3, align 8, !tbaa !19
  call void @ossl_quic_tserver_set_psk_find_session_cb(ptr noundef %22, ptr noundef @find_session_cb)
  store i32 0, ptr @use_session_cb_cnt, align 4, !tbaa !13
  store i32 0, ptr @find_session_cb_cnt, align 4, !tbaa !13
  %23 = load ptr, ptr %2, align 8, !tbaa !17
  %24 = call ptr @create_a_psk(ptr noundef %23, i64 noundef 48)
  store ptr %24, ptr @serverpsk, align 8, !tbaa !23
  store ptr %24, ptr @clientpsk, align 8, !tbaa !23
  %25 = load ptr, ptr @clientpsk, align 8, !tbaa !23
  %26 = call i32 @test_ptr(ptr noundef @.str.14, i32 noundef 1344, ptr noundef @.str.230, ptr noundef %25)
  %27 = icmp ne i32 %26, 0
  br i1 %27, label %29, label %28

28:                                               ; preds = %20
  br label %56

29:                                               ; preds = %20
  %30 = load ptr, ptr @clientpsk, align 8, !tbaa !23
  %31 = call i32 @SSL_SESSION_up_ref(ptr noundef %30)
  %32 = load ptr, ptr %3, align 8, !tbaa !19
  %33 = load ptr, ptr %2, align 8, !tbaa !17
  %34 = call i32 @qtest_create_quic_connection(ptr noundef %32, ptr noundef %33)
  %35 = icmp ne i32 %34, 0
  %36 = zext i1 %35 to i32
  %37 = call i32 @test_true(ptr noundef @.str.14, i32 noundef 1349, ptr noundef @.str.67, i32 noundef %36)
  %38 = icmp ne i32 %37, 0
  br i1 %38, label %39, label %54

39:                                               ; preds = %29
  %40 = load i32, ptr @find_session_cb_cnt, align 4, !tbaa !13
  %41 = call i32 @test_int_eq(ptr noundef @.str.14, i32 noundef 1350, ptr noundef @.str.82, ptr noundef @.str.231, i32 noundef 1, i32 noundef %40)
  %42 = icmp ne i32 %41, 0
  br i1 %42, label %43, label %54

43:                                               ; preds = %39
  %44 = load i32, ptr @use_session_cb_cnt, align 4, !tbaa !13
  %45 = call i32 @test_int_eq(ptr noundef @.str.14, i32 noundef 1351, ptr noundef @.str.82, ptr noundef @.str.232, i32 noundef 1, i32 noundef %44)
  %46 = icmp ne i32 %45, 0
  br i1 %46, label %47, label %54

47:                                               ; preds = %43
  %48 = load ptr, ptr %2, align 8, !tbaa !17
  %49 = call i32 @SSL_session_reused(ptr noundef %48)
  %50 = icmp ne i32 %49, 0
  %51 = zext i1 %50 to i32
  %52 = call i32 @test_true(ptr noundef @.str.14, i32 noundef 1353, ptr noundef @.str.89, i32 noundef %51)
  %53 = icmp ne i32 %52, 0
  br i1 %53, label %55, label %54

54:                                               ; preds = %47, %43, %39, %29
  br label %56

55:                                               ; preds = %47
  store i32 1, ptr %4, align 4, !tbaa !13
  br label %56

56:                                               ; preds = %55, %54, %28, %19
  %57 = load ptr, ptr %2, align 8, !tbaa !17
  call void @SSL_free(ptr noundef %57)
  %58 = load ptr, ptr %3, align 8, !tbaa !19
  call void @ossl_quic_tserver_free(ptr noundef %58)
  %59 = load ptr, ptr %1, align 8, !tbaa !15
  call void @SSL_CTX_free(ptr noundef %59)
  %60 = load ptr, ptr @clientpsk, align 8, !tbaa !23
  call void @SSL_SESSION_free(ptr noundef %60)
  %61 = load ptr, ptr @serverpsk, align 8, !tbaa !23
  call void @SSL_SESSION_free(ptr noundef %61)
  store ptr null, ptr @serverpsk, align 8, !tbaa !23
  store ptr null, ptr @clientpsk, align 8, !tbaa !23
  %62 = load i32, ptr %4, align 4, !tbaa !13
  call void @llvm.lifetime.end.p0(i64 4, ptr %4) #8
  call void @llvm.lifetime.end.p0(i64 8, ptr %3) #8
  call void @llvm.lifetime.end.p0(i64 8, ptr %2) #8
  call void @llvm.lifetime.end.p0(i64 8, ptr %1) #8
  ret i32 %62
}