; Function Attrs: nounwind uwtable
define internal range(i32 0, 2) i32 @test_quic_psk() #1 {
  %1 = alloca ptr, align 8
  %2 = alloca ptr, align 8
  %3 = load ptr, ptr @libctx, align 8, !tbaa !4
  %4 = tail call ptr @OSSL_QUIC_client_method() #10
  %5 = tail call ptr @SSL_CTX_new_ex(ptr noundef %3, ptr noundef null, ptr noundef %4) #10
  call void @llvm.lifetime.start.p0(i64 8, ptr nonnull %1) #10
  store ptr null, ptr %1, align 8, !tbaa !13
  call void @llvm.lifetime.start.p0(i64 8, ptr nonnull %2) #10
  store ptr null, ptr %2, align 8, !tbaa !15
  %6 = tail call i32 @test_ptr(ptr noundef nonnull @.str.14, i32 noundef 1331, ptr noundef nonnull @.str.62, ptr noundef %5) #10
  %.not = icmp eq i32 %6, 0
  br i1 %.not, label %40, label %7

7:                                                ; preds = %0
  %8 = load ptr, ptr @libctx, align 8, !tbaa !4
  %9 = call i32 @qtest_create_quic_objects(ptr noundef %8, ptr noundef %5, ptr noundef null, ptr noundef null, ptr noundef null, i32 noundef 0, ptr noundef nonnull %2, ptr noundef nonnull %1, ptr noundef null, ptr noundef null) #10
  %10 = icmp ne i32 %9, 0
  %11 = zext i1 %10 to i32
  %12 = call i32 @test_true(ptr noundef nonnull @.str.14, i32 noundef 1335, ptr noundef nonnull @.str.229, i32 noundef %11) #10
  %.not3 = icmp eq i32 %12, 0
  br i1 %.not3, label %40, label %13

13:                                               ; preds = %7
  %14 = load ptr, ptr %1, align 8, !tbaa !13
  call void @SSL_set_psk_use_session_callback(ptr noundef %14, ptr noundef nonnull @use_session_cb) #10
  %15 = load ptr, ptr %2, align 8, !tbaa !15
  call void @ossl_quic_tserver_set_psk_find_session_cb(ptr noundef %15, ptr noundef nonnull @find_session_cb) #10
  store i32 0, ptr @use_session_cb_cnt, align 4, !tbaa !19
  store i32 0, ptr @find_session_cb_cnt, align 4, !tbaa !19
  %16 = load ptr, ptr %1, align 8, !tbaa !13
  %17 = call ptr @create_a_psk(ptr noundef %16, i64 noundef 48) #10
  store ptr %17, ptr @serverpsk, align 8, !tbaa !40
  store ptr %17, ptr @clientpsk, align 8, !tbaa !40
  %18 = call i32 @test_ptr(ptr noundef nonnull @.str.14, i32 noundef 1344, ptr noundef nonnull @.str.230, ptr noundef %17) #10
  %.not4 = icmp eq i32 %18, 0
  br i1 %.not4, label %40, label %19

19:                                               ; preds = %13
  %20 = load ptr, ptr @clientpsk, align 8, !tbaa !40
  %21 = call i32 @SSL_SESSION_up_ref(ptr noundef %20) #10
  %22 = load ptr, ptr %2, align 8, !tbaa !15
  %23 = load ptr, ptr %1, align 8, !tbaa !13
  %24 = call i32 @qtest_create_quic_connection(ptr noundef %22, ptr noundef %23) #10
  %25 = icmp ne i32 %24, 0
  %26 = zext i1 %25 to i32
  %27 = call i32 @test_true(ptr noundef nonnull @.str.14, i32 noundef 1349, ptr noundef nonnull @.str.67, i32 noundef %26) #10
  %.not5 = icmp eq i32 %27, 0
  br i1 %.not5, label %40, label %28

28:                                               ; preds = %19
  %29 = load i32, ptr @find_session_cb_cnt, align 4, !tbaa !19
  %30 = call i32 @test_int_eq(ptr noundef nonnull @.str.14, i32 noundef 1350, ptr noundef nonnull @.str.82, ptr noundef nonnull @.str.231, i32 noundef 1, i32 noundef %29) #10
  %.not6 = icmp eq i32 %30, 0
  br i1 %.not6, label %40, label %31

31:                                               ; preds = %28
  %32 = load i32, ptr @use_session_cb_cnt, align 4, !tbaa !19
  %33 = call i32 @test_int_eq(ptr noundef nonnull @.str.14, i32 noundef 1351, ptr noundef nonnull @.str.82, ptr noundef nonnull @.str.232, i32 noundef 1, i32 noundef %32) #10
  %.not7 = icmp eq i32 %33, 0
  br i1 %.not7, label %40, label %34

34:                                               ; preds = %31
  %35 = load ptr, ptr %1, align 8, !tbaa !13
  %36 = call i32 @SSL_session_reused(ptr noundef %35) #10
  %37 = icmp ne i32 %36, 0
  %38 = zext i1 %37 to i32
  %39 = call i32 @test_true(ptr noundef nonnull @.str.14, i32 noundef 1353, ptr noundef nonnull @.str.89, i32 noundef %38) #10
  %.not8 = icmp ne i32 %39, 0
  %spec.select = zext i1 %.not8 to i32
  br label %40

40:                                               ; preds = %34, %19, %28, %31, %13, %0, %7
  %.0 = phi i32 [ 0, %31 ], [ 0, %28 ], [ 0, %19 ], [ 0, %13 ], [ 0, %7 ], [ 0, %0 ], [ %spec.select, %34 ]
  %41 = load ptr, ptr %1, align 8, !tbaa !13
  call void @SSL_free(ptr noundef %41) #10
  %42 = load ptr, ptr %2, align 8, !tbaa !15
  call void @ossl_quic_tserver_free(ptr noundef %42) #10
  call void @SSL_CTX_free(ptr noundef %5) #10
  %43 = load ptr, ptr @clientpsk, align 8, !tbaa !40
  call void @SSL_SESSION_free(ptr noundef %43) #10
  %44 = load ptr, ptr @serverpsk, align 8, !tbaa !40
  call void @SSL_SESSION_free(ptr noundef %44) #10
  store ptr null, ptr @serverpsk, align 8, !tbaa !40
  store ptr null, ptr @clientpsk, align 8, !tbaa !40
  call void @llvm.lifetime.end.p0(i64 8, ptr nonnull %2) #10
  call void @llvm.lifetime.end.p0(i64 8, ptr nonnull %1) #10
  ret i32 %.0
}